; Function Attrs: mustprogress uwtable
define noundef zeroext i1 @_ZN4YAML7Emitter13SetBoolFormatENS_13EMITTER_MANIPE(ptr noundef nonnull readonly align 8 captures(none) dereferenceable(72) %0, i32 noundef %1) local_unnamed_addr #0 align 2 {
  %3 = load ptr, ptr %0, align 8, !tbaa !3
  %4 = tail call noundef zeroext i1 @_ZN4YAML12EmitterState13SetBoolFormatENS_13EMITTER_MANIPENS_8FmtScope5valueE(ptr noundef nonnull align 8 dereferenceable(224) %3, i32 noundef %1, i32 noundef 1)
  %5 = load ptr, ptr %0, align 8, !tbaa !3
  %6 = tail call noundef zeroext i1 @_ZN4YAML12EmitterState17SetBoolCaseFormatENS_13EMITTER_MANIPENS_8FmtScope5valueE(ptr noundef nonnull align 8 dereferenceable(224) %5, i32 noundef %1, i32 noundef 1)
  %.1 = or i1 %4, %6
  %7 = load ptr, ptr %0, align 8, !tbaa !3
  %8 = tail call noundef zeroext i1 @_ZN4YAML12EmitterState19SetBoolLengthFormatENS_13EMITTER_MANIPENS_8FmtScope5valueE(ptr noundef nonnull align 8 dereferenceable(224) %7, i32 noundef %1, i32 noundef 1)
  %spec.select = or i1 %.1, %8
  ret i1 %spec.select
}